target datalayout = "e-m:e-p270:32:32-p271:32:32-p272:64:64-i64:64-i128:128-f80:128-n8:16:32:64-S128"
target triple = "x86_64-pc-linux-gnu"

%struct.AVRational = type { i32, i32 }
%struct.AVChannelLayout = type { i32, i32, %union.anon, ptr }
%union.anon = type { i64 }
%struct.AVFilterContext = type { ptr, ptr, ptr, ptr, ptr, i32, ptr, ptr, i32, ptr, ptr, i32, i32, ptr, ptr, ptr, ptr, i32, ptr, i32, i32 }
%struct.BufferSourceContext = type { ptr, %struct.AVRational, %struct.AVRational, i32, i32, i32, i32, i32, i32, i32, i32, i32, i32, i32, %struct.AVRational, ptr, i32, i32, i32, %struct.AVChannelLayout, ptr, i32, i32, i64, i32, i32 }

; Function Attrs: inlinehint nounwind uwtable
define internal void @ff_outlink_set_status(ptr noundef %0, i32 noundef %1, i64 noundef %2) #4 {
  %4 = alloca ptr, align 8
  %5 = alloca i32, align 4
  %6 = alloca i64, align 8
  store ptr %0, ptr %4, align 8, !tbaa !85
  store i32 %1, ptr %5, align 4, !tbaa !36
  store i64 %2, ptr %6, align 8, !tbaa !109
  %7 = load ptr, ptr %4, align 8, !tbaa !85
  %8 = load i32, ptr %5, align 4, !tbaa !36
  %9 = load i64, ptr %6, align 8, !tbaa !109
  call void @ff_avfilter_link_set_in_status(ptr noundef %7, i32 noundef %8, i64 noundef %9)
  ret void
}

; Function Attrs: nounwind uwtable
define internal i32 @activate(ptr noundef %0) #0 {
  %2 = alloca i32, align 4
  %3 = alloca ptr, align 8
  %4 = alloca ptr, align 8
  %5 = alloca ptr, align 8
  %6 = alloca i32, align 4
  store ptr %0, ptr %3, align 8, !tbaa !19
  call void @llvm.lifetime.start.p0(i64 8, ptr %4) #7
  %7 = load ptr, ptr %3, align 8, !tbaa !19
  %8 = getelementptr inbounds nuw %struct.AVFilterContext, ptr %7, i32 0, i32 7
  %9 = load ptr, ptr %8, align 8, !tbaa !84
  %10 = getelementptr inbounds ptr, ptr %9, i64 0
  %11 = load ptr, ptr %10, align 8, !tbaa !85
  store ptr %11, ptr %4, align 8, !tbaa !85
  call void @llvm.lifetime.start.p0(i64 8, ptr %5) #7
  %12 = load ptr, ptr %3, align 8, !tbaa !19
  %13 = getelementptr inbounds nuw %struct.AVFilterContext, ptr %12, i32 0, i32 9
  %14 = load ptr, ptr %13, align 8, !tbaa !21
  store ptr %14, ptr %5, align 8, !tbaa !31
  %15 = load ptr, ptr %5, align 8, !tbaa !31
  %16 = getelementptr inbounds nuw %struct.BufferSourceContext, ptr %15, i32 0, i32 22
  %17 = load i32, ptr %16, align 4, !tbaa !76
  %18 = icmp ne i32 %17, 0
  br i1 %18, label %26, label %19

19:                                               ; preds = %1
  %20 = load ptr, ptr %4, align 8, !tbaa !85
  %21 = call i32 @ff_outlink_get_status(ptr noundef %20)
  %22 = icmp ne i32 %21, 0
  br i1 %22, label %23, label %26

23:                                               ; preds = %19
  %24 = load ptr, ptr %5, align 8, !tbaa !31
  %25 = getelementptr inbounds nuw %struct.BufferSourceContext, ptr %24, i32 0, i32 22
  store i32 1, ptr %25, align 4, !tbaa !76
  store i32 0, ptr %2, align 4
  store i32 1, ptr %6, align 4
  br label %41

26:                                               ; preds = %19, %1
  %27 = load ptr, ptr %5, align 8, !tbaa !31
  %28 = getelementptr inbounds nuw %struct.BufferSourceContext, ptr %27, i32 0, i32 22
  %29 = load i32, ptr %28, align 4, !tbaa !76
  %30 = icmp ne i32 %29, 0
  br i1 %30, label %31, label %36

31:                                               ; preds = %26
  %32 = load ptr, ptr %4, align 8, !tbaa !85
  %33 = load ptr, ptr %5, align 8, !tbaa !31
  %34 = getelementptr inbounds nuw %struct.BufferSourceContext, ptr %33, i32 0, i32 23
  %35 = load i64, ptr %34, align 8, !tbaa !75
  call void @ff_outlink_set_status(ptr noundef %32, i32 noundef -541478725, i64 noundef %35)
  store i32 0, ptr %2, align 4
  store i32 1, ptr %6, align 4
  br label %41

36:                                               ; preds = %26
  %37 = load ptr, ptr %5, align 8, !tbaa !31
  %38 = getelementptr inbounds nuw %struct.BufferSourceContext, ptr %37, i32 0, i32 3
  %39 = load i32, ptr %38, align 8, !tbaa !74
  %40 = add i32 %39, 1
  store i32 %40, ptr %38, align 8, !tbaa !74
  store i32 -1497649742, ptr %2, align 4
  store i32 1, ptr %6, align 4
  br label %41

41:                                               ; preds = %36, %31, %23
  call void @llvm.lifetime.end.p0(i64 8, ptr %5) #7
  call void @llvm.lifetime.end.p0(i64 8, ptr %4) #7
  %42 = load i32, ptr %2, align 4
  ret i32 %42
}