; Function Attrs: nounwind uwtable
define internal range(i32 -1497649742, 1) i32 @activate(ptr noundef readonly captures(none) %0) #0 {
  %2 = getelementptr inbounds nuw i8, ptr %0, i64 56
  %3 = load ptr, ptr %2, align 8, !tbaa !67
  %4 = load ptr, ptr %3, align 8, !tbaa !68
  %5 = getelementptr inbounds nuw i8, ptr %0, i64 72
  %6 = load ptr, ptr %5, align 8, !tbaa !17
  %7 = getelementptr inbounds nuw i8, ptr %6, i64 140
  %8 = load i32, ptr %7, align 4, !tbaa !66
  %.not = icmp eq i32 %8, 0
  br i1 %.not, label %9, label %.thread

9:                                                ; preds = %1
  %10 = tail call i32 @ff_outlink_get_status(ptr noundef %4) #6
  %.not9 = icmp eq i32 %10, 0
  br i1 %.not9, label %12, label %11

11:                                               ; preds = %9
  store i32 1, ptr %7, align 4, !tbaa !66
  br label %19

12:                                               ; preds = %9
  %.pr = load i32, ptr %7, align 4, !tbaa !66
  %.not10 = icmp eq i32 %.pr, 0
  br i1 %.not10, label %15, label %.thread

.thread:                                          ; preds = %1, %12
  %13 = getelementptr inbounds nuw i8, ptr %6, i64 144
  %14 = load i64, ptr %13, align 8, !tbaa !65
  tail call void @ff_avfilter_link_set_in_status(ptr noundef %4, i32 noundef -541478725, i64 noundef %14) #6
  br label %19

15:                                               ; preds = %12
  %16 = getelementptr inbounds nuw i8, ptr %6, i64 24
  %17 = load i32, ptr %16, align 8, !tbaa !64
  %18 = add i32 %17, 1
  store i32 %18, ptr %16, align 8, !tbaa !64
  br label %19

19:                                               ; preds = %15, %.thread, %11
  %.0 = phi i32 [ 0, %.thread ], [ -1497649742, %15 ], [ 0, %11 ]
  ret i32 %.0
}